target datalayout = "e-m:e-p270:32:32-p271:32:32-p272:64:64-i64:64-i128:128-f80:128-n8:16:32:64-S128"
target triple = "x86_64-pc-linux-gnu"

%struct.tsd_s = type { i8, i8, i8, i64, i64, i64, i64, i64, i64, i64, i64, i64, i64, i64, i64, ptr, i64, i64, i64, ptr, ptr, %struct.ticker_geom_s, i8, %struct.tsd_binshards_s, %struct.tsd_link_t, i8, %struct.peak_s, %struct.activity_callback_thunk_s, %struct.tcache_slow_s, %struct.rtree_ctx_s, %struct.atomic_u8_t, i64, i64, i64, i64, %struct.tcache_s, %struct.witness_tsd_s }
%struct.ticker_geom_s = type { i32, i32 }
%struct.tsd_binshards_s = type { [36 x i8] }
%struct.tsd_link_t = type { ptr, ptr }
%struct.peak_s = type { i64, i64 }
%struct.activity_callback_thunk_s = type { ptr, ptr }
%struct.tcache_slow_s = type { %struct.anon.3, %struct.cache_bin_array_descriptor_s, ptr, i32, i32, [36 x i8], [36 x i8], [36 x i8], ptr, ptr }
%struct.anon.3 = type { ptr, ptr }
%struct.cache_bin_array_descriptor_s = type { %struct.anon.4, ptr }
%struct.anon.4 = type { ptr, ptr }
%struct.rtree_ctx_s = type { [16 x %struct.rtree_ctx_cache_elm_s], [8 x %struct.rtree_ctx_cache_elm_s] }
%struct.rtree_ctx_cache_elm_s = type { i64, ptr }
%struct.atomic_u8_t = type { i8 }
%struct.tcache_s = type { ptr, [73 x %struct.cache_bin_s] }
%struct.cache_bin_s = type { ptr, %struct.cache_bin_stats_s, i16, i16, i16, %struct.cache_bin_info_s }
%struct.cache_bin_stats_s = type { i64 }
%struct.cache_bin_info_s = type { i16 }
%struct.witness_tsd_s = type { %struct.witness_list_t, i8 }
%struct.witness_list_t = type { ptr }

; Function Attrs: alwaysinline nounwind uwtable
define internal ptr @tsd_tcache_enabledp_get_unsafe(ptr noundef %0) #2 {
  %2 = alloca ptr, align 8
  store ptr %0, ptr %2, align 8, !tbaa !3
  %3 = load ptr, ptr %2, align 8, !tbaa !3
  %4 = getelementptr inbounds nuw %struct.tsd_s, ptr %3, i32 0, i32 0
  ret ptr %4
}

; Function Attrs: alwaysinline nounwind uwtable
define internal zeroext i8 @tsd_state_get(ptr noundef %0) #2 {
  %2 = alloca ptr, align 8
  store ptr %0, ptr %2, align 8, !tbaa !3
  %3 = load ptr, ptr %2, align 8, !tbaa !3
  %4 = getelementptr inbounds nuw %struct.tsd_s, ptr %3, i32 0, i32 30
  %5 = load i8, ptr %4, align 8, !tbaa !52
  ret i8 %5
}

; Function Attrs: alwaysinline nounwind uwtable
define internal ptr @tsd_tcache_enabledp_get(ptr noundef %0) #2 {
  %2 = alloca ptr, align 8
  %3 = alloca i8, align 1
  store ptr %0, ptr %2, align 8, !tbaa !3
  call void @llvm.lifetime.start.p0(i64 1, ptr %3) #13
  %4 = load ptr, ptr %2, align 8, !tbaa !3
  %5 = call zeroext i8 @tsd_state_get(ptr noundef %4)
  store i8 %5, ptr %3, align 1, !tbaa !52
  br label %6

6:                                                ; preds = %1
  br label %7

7:                                                ; preds = %6
  br label %8

8:                                                ; preds = %7
  %9 = load ptr, ptr %2, align 8, !tbaa !3
  %10 = call ptr @tsd_tcache_enabledp_get_unsafe(ptr noundef %9)
  call void @llvm.lifetime.end.p0(i64 1, ptr %3) #13
  ret ptr %10
}

; Function Attrs: alwaysinline nounwind uwtable
define internal zeroext i1 @tsd_tcache_enabled_get(ptr noundef %0) #2 {
  %2 = alloca ptr, align 8
  store ptr %0, ptr %2, align 8, !tbaa !3
  %3 = load ptr, ptr %2, align 8, !tbaa !3
  %4 = call ptr @tsd_tcache_enabledp_get(ptr noundef %3)
  %5 = load i8, ptr %4, align 1, !tbaa !15, !range !17, !noundef !18
  %6 = trunc i8 %5 to i1
  ret i1 %6
}

; Function Attrs: alwaysinline nounwind uwtable
define internal zeroext i1 @tcache_available(ptr noundef %0) #2 {
  %2 = alloca i1, align 1
  %3 = alloca ptr, align 8
  store ptr %0, ptr %3, align 8, !tbaa !3
  %4 = load ptr, ptr %3, align 8, !tbaa !3
  %5 = call zeroext i1 @tsd_tcache_enabled_get(ptr noundef %4)
  %6 = xor i1 %5, true
  %7 = xor i1 %6, true
  %8 = zext i1 %7 to i32
  %9 = sext i32 %8 to i64
  %10 = call i64 @llvm.expect.i64(i64 %9, i64 1)
  %11 = icmp ne i64 %10, 0
  br i1 %11, label %12, label %13

12:                                               ; preds = %1
  store i1 true, ptr %2, align 1
  br label %14

13:                                               ; preds = %1
  store i1 false, ptr %2, align 1
  br label %14

14:                                               ; preds = %13, %12
  %15 = load i1, ptr %2, align 1
  ret i1 %15
}

; Function Attrs: nounwind uwtable
define internal i32 @thread_tcache_ncached_max_write_ctl(ptr noundef %0, ptr noundef %1, i64 noundef %2, ptr noundef %3, ptr noundef %4, ptr noundef %5, i64 noundef %6) #0 {
  %8 = alloca i32, align 4
  %9 = alloca ptr, align 8
  %10 = alloca ptr, align 8
  %11 = alloca i64, align 8
  %12 = alloca ptr, align 8
  %13 = alloca ptr, align 8
  %14 = alloca ptr, align 8
  %15 = alloca i64, align 8
  %16 = alloca i32, align 4
  %17 = alloca ptr, align 8
  %18 = alloca ptr, align 8
  %19 = alloca i64, align 8
  %20 = alloca i32, align 4
  store ptr %0, ptr %9, align 8, !tbaa !3
  store ptr %1, ptr %10, align 8, !tbaa !11
  store i64 %2, ptr %11, align 8, !tbaa !13
  store ptr %3, ptr %12, align 8, !tbaa !10
  store ptr %4, ptr %13, align 8, !tbaa !11
  store ptr %5, ptr %14, align 8, !tbaa !10
  store i64 %6, ptr %15, align 8, !tbaa !13
  call void @llvm.lifetime.start.p0(i64 4, ptr %16) #13
  br label %21

21:                                               ; preds = %7
  %22 = load ptr, ptr %12, align 8, !tbaa !10
  %23 = icmp ne ptr %22, null
  br i1 %23, label %27, label %24

24:                                               ; preds = %21
  %25 = load ptr, ptr %13, align 8, !tbaa !11
  %26 = icmp ne ptr %25, null
  br i1 %26, label %27, label %28

27:                                               ; preds = %24, %21
  store i32 1, ptr %16, align 4, !tbaa !19
  br label %82

28:                                               ; preds = %24
  br label %29

29:                                               ; preds = %28
  br label %30

30:                                               ; preds = %29
  %31 = load ptr, ptr %14, align 8, !tbaa !10
  %32 = icmp ne ptr %31, null
  br i1 %32, label %33, label %81

33:                                               ; preds = %30
  %34 = load ptr, ptr %9, align 8, !tbaa !3
  %35 = call zeroext i1 @tcache_available(ptr noundef %34)
  br i1 %35, label %37, label %36

36:                                               ; preds = %33
  store i32 2, ptr %16, align 4, !tbaa !19
  br label %82

37:                                               ; preds = %33
  call void @llvm.lifetime.start.p0(i64 8, ptr %17) #13
  store ptr null, ptr %17, align 8, !tbaa !8
  br label %38

38:                                               ; preds = %37
  %39 = load ptr, ptr %14, align 8, !tbaa !10
  %40 = icmp ne ptr %39, null
  br i1 %40, label %41, label %48

41:                                               ; preds = %38
  %42 = load i64, ptr %15, align 8, !tbaa !13
  %43 = icmp ne i64 %42, 8
  br i1 %43, label %44, label %45

44:                                               ; preds = %41
  store i32 22, ptr %16, align 4, !tbaa !19
  store i32 4, ptr %20, align 4
  br label %78

45:                                               ; preds = %41
  %46 = load ptr, ptr %14, align 8, !tbaa !10
  %47 = load ptr, ptr %46, align 8, !tbaa !8
  store ptr %47, ptr %17, align 8, !tbaa !8
  br label %48

48:                                               ; preds = %45, %38
  br label %49

49:                                               ; preds = %48
  br label %50

50:                                               ; preds = %49
  %51 = load ptr, ptr %17, align 8, !tbaa !8
  %52 = icmp eq ptr %51, null
  br i1 %52, label %53, label %54

53:                                               ; preds = %50
  store i32 22, ptr %16, align 4, !tbaa !19
  store i32 4, ptr %20, align 4
  br label %78

54:                                               ; preds = %50
  call void @llvm.lifetime.start.p0(i64 8, ptr %18) #13
  %55 = load ptr, ptr %17, align 8, !tbaa !8
  %56 = call ptr @memchr(ptr noundef %55, i32 noundef 0, i64 noundef 1000) #14
  store ptr %56, ptr %18, align 8, !tbaa !8
  %57 = load ptr, ptr %18, align 8, !tbaa !8
  %58 = icmp eq ptr %57, null
  br i1 %58, label %59, label %60

59:                                               ; preds = %54
  store i32 22, ptr %16, align 4, !tbaa !19
  store i32 4, ptr %20, align 4
  br label %77

60:                                               ; preds = %54
  call void @llvm.lifetime.start.p0(i64 8, ptr %19) #13
  %61 = load ptr, ptr %18, align 8, !tbaa !8
  %62 = ptrtoint ptr %61 to i64
  %63 = load ptr, ptr %17, align 8, !tbaa !8
  %64 = ptrtoint ptr %63 to i64
  %65 = sub i64 %62, %64
  store i64 %65, ptr %19, align 8, !tbaa !13
  %66 = load i64, ptr %19, align 8, !tbaa !13
  %67 = icmp eq i64 %66, 0
  br i1 %67, label %68, label %69

68:                                               ; preds = %60
  store i32 0, ptr %16, align 4, !tbaa !19
  store i32 4, ptr %20, align 4
  br label %76

69:                                               ; preds = %60
  %70 = load ptr, ptr %9, align 8, !tbaa !3
  %71 = load ptr, ptr %17, align 8, !tbaa !8
  %72 = load i64, ptr %19, align 8, !tbaa !13
  %73 = call zeroext i1 @duckdb_je_tcache_bins_ncached_max_write(ptr noundef %70, ptr noundef %71, i64 noundef %72)
  br i1 %73, label %74, label %75

74:                                               ; preds = %69
  store i32 22, ptr %16, align 4, !tbaa !19
  store i32 4, ptr %20, align 4
  br label %76

75:                                               ; preds = %69
  store i32 0, ptr %20, align 4
  br label %76

76:                                               ; preds = %74, %68, %75
  call void @llvm.lifetime.end.p0(i64 8, ptr %19) #13
  br label %77

77:                                               ; preds = %59, %76
  call void @llvm.lifetime.end.p0(i64 8, ptr %18) #13
  br label %78

78:                                               ; preds = %53, %44, %77
  call void @llvm.lifetime.end.p0(i64 8, ptr %17) #13
  %79 = load i32, ptr %20, align 4
  switch i32 %79, label %84 [
    i32 0, label %80
    i32 4, label %82
  ]

80:                                               ; preds = %78
  br label %81

81:                                               ; preds = %80, %30
  store i32 0, ptr %16, align 4, !tbaa !19
  br label %82

82:                                               ; preds = %81, %78, %36, %27
  %83 = load i32, ptr %16, align 4, !tbaa !19
  store i32 %83, ptr %8, align 4
  store i32 1, ptr %20, align 4
  br label %84

84:                                               ; preds = %82, %78
  call void @llvm.lifetime.end.p0(i64 4, ptr %16) #13
  %85 = load i32, ptr %8, align 4
  ret i32 %85
}