; Function Attrs: nounwind uwtable
define internal range(i32 0, 23) i32 @thread_tcache_ncached_max_write_ctl(ptr noundef %0, ptr readnone captures(none) %1, i64 %2, ptr noundef readnone captures(address_is_null) %3, ptr noundef readnone captures(address_is_null) %4, ptr noundef readonly captures(address_is_null) %5, i64 noundef %6) #0 {
  %8 = icmp ne ptr %3, null
  %9 = icmp ne ptr %4, null
  %or.cond = or i1 %8, %9
  br i1 %or.cond, label %.thread, label %10

10:                                               ; preds = %7
  %.not = icmp eq ptr %5, null
  br i1 %.not, label %.thread, label %11

11:                                               ; preds = %10
  %12 = load i8, ptr %0, align 1, !tbaa !133, !range !45, !noundef !46
  %13 = trunc nuw i8 %12 to i1
  br i1 %13, label %14, label %.thread

14:                                               ; preds = %11
  %.not27 = icmp eq i64 %6, 8
  br i1 %.not27, label %15, label %.thread

15:                                               ; preds = %14
  %16 = load ptr, ptr %5, align 8, !tbaa !37
  %17 = icmp eq ptr %16, null
  br i1 %17, label %.thread, label %18

18:                                               ; preds = %15
  %19 = tail call ptr @memchr(ptr noundef nonnull dereferenceable(1) %16, i32 noundef 0, i64 noundef 1000) #15
  %20 = icmp eq ptr %19, null
  br i1 %20, label %.thread, label %21

21:                                               ; preds = %18
  %22 = icmp eq ptr %19, %16
  br i1 %22, label %.thread, label %23

23:                                               ; preds = %21
  %24 = ptrtoint ptr %16 to i64
  %25 = ptrtoint ptr %19 to i64
  %26 = sub i64 %25, %24
  %27 = tail call zeroext i1 @duckdb_je_tcache_bins_ncached_max_write(ptr noundef nonnull %0, ptr noundef nonnull %16, i64 noundef %26) #14
  %spec.select = select i1 %27, i32 22, i32 0
  br label %.thread

.thread:                                          ; preds = %23, %21, %18, %15, %14, %10, %7, %11
  %.020 = phi i32 [ 1, %7 ], [ 2, %11 ], [ 0, %10 ], [ 0, %21 ], [ 22, %18 ], [ 22, %15 ], [ 22, %14 ], [ %spec.select, %23 ]
  ret i32 %.020
}